; Function Attrs: mustprogress uwtable
define noundef zeroext i1 @_ZNK8facebook5velox6common10MultiRange15testDoubleRangeEddb(ptr nocapture noundef nonnull readonly align 8 dereferenceable(48) %this, double noundef %min, double noundef %max, i1 noundef zeroext %hasNull) unnamed_addr #0 align 2 {
entry:
  br i1 %hasNull, label %land.lhs.true, label %if.end

land.lhs.true:                                    ; preds = %entry
  %nullAllowed_ = getelementptr inbounds i8, ptr %this, i64 8
  %0 = load i8, ptr %nullAllowed_, align 8
  %1 = and i8 %0, 1
  %tobool2.not = icmp eq i8 %1, 0
  br i1 %tobool2.not, label %if.end, label %return

if.end:                                           ; preds = %land.lhs.true, %entry
  %filters_ = getelementptr inbounds i8, ptr %this, i64 16
  %2 = load ptr, ptr %filters_, align 8
  %_M_finish.i = getelementptr inbounds i8, ptr %this, i64 24
  %3 = load ptr, ptr %_M_finish.i, align 8
  %cmp.i.not5 = icmp eq ptr %2, %3
  br i1 %cmp.i.not5, label %return, label %for.body

for.body:                                         ; preds = %if.end, %for.body
  %__begin2.sroa.0.06 = phi ptr [ %incdec.ptr.i, %for.body ], [ %2, %if.end ]
  %4 = load ptr, ptr %__begin2.sroa.0.06, align 8
  %vtable = load ptr, ptr %4, align 8
  %vfn = getelementptr inbounds i8, ptr %vtable, i64 216
  %5 = load ptr, ptr %vfn, align 8
  %call9 = tail call noundef zeroext i1 %5(ptr noundef nonnull align 8 dereferenceable(16) %4, double noundef %min, double noundef %max, i1 noundef zeroext %hasNull)
  %incdec.ptr.i = getelementptr inbounds i8, ptr %__begin2.sroa.0.06, i64 8
  %cmp.i.not = icmp eq ptr %incdec.ptr.i, %3
  %or.cond = select i1 %call9, i1 true, i1 %cmp.i.not
  br i1 %or.cond, label %return, label %for.body

return:                                           ; preds = %for.body, %if.end, %land.lhs.true
  %retval.0 = phi i1 [ true, %land.lhs.true ], [ false, %if.end ], [ %call9, %for.body ]
  ret i1 %retval.0
}